; Function Attrs: nounwind uwtable
define ptr @l_Option_toJson___at___private_Lake_Load_Manifest_0__Lake_toJsonPackageEntryV6____x40_Lake_Load_Manifest___hyg_456____spec__4(ptr noundef %0) local_unnamed_addr #0 {
  %2 = ptrtoint ptr %0 to i64
  %3 = and i64 %2, 1
  %.not.i17 = icmp eq i64 %3, 0
  br i1 %.not.i17, label %7, label %4

4:                                                ; preds = %1
  %5 = lshr i64 %2, 1
  %6 = trunc i64 %5 to i32
  br label %lean_obj_tag.exit

7:                                                ; preds = %1
  %8 = getelementptr i8, ptr %0, i64 4
  %.val.i = load i32, ptr %8, align 4
  %9 = lshr i32 %.val.i, 24
  br label %lean_obj_tag.exit

lean_obj_tag.exit:                                ; preds = %4, %7
  %.0.i = phi i32 [ %6, %4 ], [ %9, %7 ]
  %10 = icmp eq i32 %.0.i, 0
  br i1 %10, label %43, label %11

11:                                               ; preds = %lean_obj_tag.exit
  %.val = load i32, ptr %0, align 4, !tbaa !4
  %12 = icmp eq i32 %.val, 1
  %13 = getelementptr inbounds nuw i8, ptr %0, i64 8
  %14 = load ptr, ptr %13, align 8, !tbaa !9
  br i1 %12, label %15, label %21

15:                                               ; preds = %11
  %16 = tail call ptr @l_Lake_mkRelPathString(ptr noundef %14) #6
  %17 = getelementptr inbounds nuw i8, ptr %0, i64 4
  %18 = load i32, ptr %17, align 4
  %19 = and i32 %18, 16777215
  %20 = or disjoint i32 %19, 50331648
  store i32 %20, ptr %17, align 4
  store ptr %16, ptr %13, align 8, !tbaa !9
  br label %43

21:                                               ; preds = %11
  %22 = ptrtoint ptr %14 to i64
  %23 = and i64 %22, 1
  %.not = icmp eq i64 %23, 0
  br i1 %.not, label %24, label %lean_inc.exit

24:                                               ; preds = %21
  %.val.i18 = load i32, ptr %14, align 4, !tbaa !4
  %25 = icmp sgt i32 %.val.i18, 0
  br i1 %25, label %26, label %28, !prof !11

26:                                               ; preds = %24
  %27 = add nuw i32 %.val.i18, 1
  store i32 %27, ptr %14, align 4, !tbaa !4
  br label %lean_inc.exit

28:                                               ; preds = %24
  %.not.i19 = icmp eq i32 %.val.i18, 0
  br i1 %.not.i19, label %lean_inc.exit, label %29

29:                                               ; preds = %28
  tail call void @lean_inc_ref_cold(ptr noundef nonnull %14) #6
  br label %lean_inc.exit

lean_inc.exit:                                    ; preds = %29, %28, %26, %21
  br i1 %.not.i17, label %30, label %lean_dec.exit

30:                                               ; preds = %lean_inc.exit
  %31 = load i32, ptr %0, align 4, !tbaa !4
  %32 = icmp sgt i32 %31, 1
  br i1 %32, label %33, label %35, !prof !11

33:                                               ; preds = %30
  %34 = add nsw i32 %31, -1
  store i32 %34, ptr %0, align 4, !tbaa !4
  br label %lean_dec.exit

35:                                               ; preds = %30
  %.not.i = icmp eq i32 %31, 0
  br i1 %.not.i, label %lean_dec.exit, label %36

36:                                               ; preds = %35
  tail call void @lean_dec_ref_cold(ptr noundef nonnull %0) #6
  br label %lean_dec.exit

lean_dec.exit:                                    ; preds = %36, %35, %33, %lean_inc.exit
  %37 = tail call ptr @l_Lake_mkRelPathString(ptr noundef %14) #6
  tail call void @lean_inc_heartbeat() #6
  %38 = tail call noalias ptr @mi_malloc_small(i64 noundef 16) #6
  %39 = icmp eq ptr %38, null
  br i1 %39, label %40, label %lean_alloc_ctor.exit

40:                                               ; preds = %lean_dec.exit
  tail call void @lean_internal_panic_out_of_memory() #7
  unreachable

lean_alloc_ctor.exit:                             ; preds = %lean_dec.exit
  %41 = getelementptr inbounds nuw i8, ptr %38, i64 4
  store i32 1, ptr %38, align 4, !tbaa !4
  store i32 50397200, ptr %41, align 4
  %42 = getelementptr inbounds nuw i8, ptr %38, i64 8
  store ptr %37, ptr %42, align 8, !tbaa !9
  br label %43

43:                                               ; preds = %lean_obj_tag.exit, %15, %lean_alloc_ctor.exit
  %.0 = phi ptr [ %0, %15 ], [ %38, %lean_alloc_ctor.exit ], [ inttoptr (i64 1 to ptr), %lean_obj_tag.exit ]
  ret ptr %.0
}